; Function Attrs: nounwind sspstrong uwtable
define internal fastcc noundef i64 @range_each_fixnum_loop(i64 noundef %0, i64 noundef %1, i64 noundef returned %2) unnamed_addr #0 {
  %4 = ashr i64 %1, 1
  %5 = inttoptr i64 %2 to ptr
  %6 = load i64, ptr %5, align 8, !tbaa !11
  %7 = and i64 %6, 1040384
  %.not.i.i.i = icmp eq i64 %7, 0
  br i1 %.not.i.i.i, label %10, label %8

8:                                                ; preds = %3
  %9 = getelementptr inbounds nuw i8, ptr %5, i64 16
  br label %RANGE_EXCL.exit

10:                                               ; preds = %3
  %11 = getelementptr inbounds nuw i8, ptr %5, i64 24
  %12 = load ptr, ptr %11, align 8, !tbaa !13
  br label %RANGE_EXCL.exit

RANGE_EXCL.exit:                                  ; preds = %8, %10
  %.0.i.i.i = phi ptr [ %9, %8 ], [ %12, %10 ]
  %13 = getelementptr i8, ptr %.0.i.i.i, i64 16
  %14 = load i64, ptr %13, align 8, !tbaa !7
  %15 = and i64 %14, -5
  %.not = icmp eq i64 %15, 0
  %16 = zext i1 %.not to i64
  %17 = add nsw i64 %4, %16
  %18 = ashr i64 %0, 1
  %19 = icmp slt i64 %18, %17
  br i1 %19, label %.lr.ph, label %._crit_edge

._crit_edge:                                      ; preds = %.lr.ph, %RANGE_EXCL.exit
  ret i64 %2

.lr.ph:                                           ; preds = %RANGE_EXCL.exit, %.lr.ph
  %.08 = phi i64 [ %23, %.lr.ph ], [ %18, %RANGE_EXCL.exit ]
  %20 = shl i64 %.08, 1
  %21 = or disjoint i64 %20, 1
  %22 = tail call i64 @rb_yield(i64 noundef %21) #13
  %23 = add nsw i64 %.08, 1
  %24 = icmp slt i64 %23, %17
  br i1 %24, label %.lr.ph, label %._crit_edge, !llvm.loop !26
}